; Function Attrs: nounwind sspstrong uwtable
define internal noundef zeroext i1 @cmd_write_dma(ptr noundef initializes((665, 666)) %s, i8 noundef zeroext %cmd) #0 {
entry:
  %blk = getelementptr inbounds nuw i8, ptr %s, i64 672
  %0 = load ptr, ptr %blk, align 8
  %tobool.not = icmp eq ptr %0, null
  br i1 %tobool.not, label %if.then, label %if.end

if.then:                                          ; preds = %entry
  %status.i = getelementptr inbounds nuw i8, ptr %s, i64 665
  %error.i = getelementptr inbounds nuw i8, ptr %s, i64 649
  store i8 4, ptr %error.i, align 1
  %end_transfer_func.i.i.i = getelementptr inbounds nuw i8, ptr %s, i64 864
  store ptr @ide_transfer_stop, ptr %end_transfer_func.i.i.i, align 8
  %io_buffer.i.i.i = getelementptr inbounds nuw i8, ptr %s, i64 888
  %1 = load ptr, ptr %io_buffer.i.i.i, align 8
  %data_ptr.i.i.i = getelementptr inbounds nuw i8, ptr %s, i64 872
  store ptr %1, ptr %data_ptr.i.i.i, align 8
  %data_end.i.i.i = getelementptr inbounds nuw i8, ptr %s, i64 880
  store ptr %1, ptr %data_end.i.i.i, align 8
  store i8 65, ptr %status.i, align 1
  %s.val.i.i = load ptr, ptr %s, align 8
  %2 = getelementptr i8, ptr %s.val.i.i, i64 2120
  %s.val.val.i.i = load ptr, ptr %2, align 8
  %3 = load ptr, ptr %s.val.val.i.i, align 8
  %cmd_done.i.i.i = getelementptr inbounds nuw i8, ptr %3, i64 64
  %4 = load ptr, ptr %cmd_done.i.i.i, align 8
  %tobool.not.i.i.i = icmp eq ptr %4, null
  br i1 %tobool.not.i.i.i, label %return, label %if.then.i.i.i

if.then.i.i.i:                                    ; preds = %if.then
  tail call void %4(ptr noundef nonnull %s.val.val.i.i) #17
  br label %return

if.end:                                           ; preds = %entry
  %cmp = icmp eq i8 %cmd, 53
  %conv.i = zext i1 %cmp to i8
  %lba481.i = getelementptr inbounds nuw i8, ptr %s, i64 668
  store i8 %conv.i, ptr %lba481.i, align 4
  %nsector.i = getelementptr inbounds nuw i8, ptr %s, i64 652
  %5 = load i32, ptr %nsector.i, align 4
  %tobool3.not.i = icmp eq i32 %5, 0
  br i1 %cmp, label %if.else.i, label %if.then.i

if.then.i:                                        ; preds = %if.end
  br i1 %tobool3.not.i, label %if.end17.sink.split.i, label %ide_cmd_lba48_transform.exit

if.else.i:                                        ; preds = %if.end
  %hob_nsector.i = getelementptr inbounds nuw i8, ptr %s, i64 660
  %6 = load i8, ptr %hob_nsector.i, align 4
  %tobool8.not.i = icmp eq i8 %6, 0
  %or.cond.i = select i1 %tobool3.not.i, i1 %tobool8.not.i, i1 false
  br i1 %or.cond.i, label %if.end17.sink.split.i, label %if.else11.i

if.else11.i:                                      ; preds = %if.else.i
  %conv14.i = zext i8 %6 to i32
  %shl.i = shl nuw nsw i32 %conv14.i, 8
  %or.i = or i32 %shl.i, %5
  br label %if.end17.sink.split.i

if.end17.sink.split.i:                            ; preds = %if.else11.i, %if.else.i, %if.then.i
  %.sink.i = phi i32 [ %or.i, %if.else11.i ], [ 256, %if.then.i ], [ 65536, %if.else.i ]
  store i32 %.sink.i, ptr %nsector.i, align 4
  br label %ide_cmd_lba48_transform.exit

ide_cmd_lba48_transform.exit:                     ; preds = %if.then.i, %if.end17.sink.split.i
  %status.i5 = getelementptr inbounds nuw i8, ptr %s, i64 665
  store i8 88, ptr %status.i5, align 1
  %io_buffer_size.i = getelementptr inbounds nuw i8, ptr %s, i64 808
  store i32 0, ptr %io_buffer_size.i, align 8
  %dma_cmd1.i = getelementptr inbounds nuw i8, ptr %s, i64 948
  store i32 1, ptr %dma_cmd1.i, align 4
  %call4.i = tail call ptr @blk_get_stats(ptr noundef nonnull %0) #17
  %acct5.i = getelementptr inbounds nuw i8, ptr %s, i64 720
  %7 = load i32, ptr %nsector.i, align 4
  %conv7.i = zext i32 %7 to i64
  %mul8.i = shl nuw nsw i64 %conv7.i, 9
  tail call void @block_acct_start(ptr noundef %call4.i, ptr noundef nonnull %acct5.i, i64 noundef %mul8.i, i32 noundef 2) #17
  tail call void @ide_start_dma(ptr noundef nonnull %s, ptr noundef nonnull @ide_dma_cb)
  %media_changed = getelementptr inbounds nuw i8, ptr %s, i64 944
  store i32 1, ptr %media_changed, align 8
  br label %return

return:                                           ; preds = %if.then.i.i.i, %if.then, %ide_cmd_lba48_transform.exit
  ret i1 %tobool.not
}